
_arrosage:

;lcd.c,30 :: 		void arrosage(){
;lcd.c,31 :: 		finArrosageClrCount=0;
	CLRF       _finArrosageClrCount+0
	CLRF       _finArrosageClrCount+1
;lcd.c,33 :: 		if(arrosageClrCount==0){
	MOVLW      0
	XORWF      _arrosageClrCount+1, 0
	BTFSS      STATUS+0, 2
	GOTO       L__arrosage65
	MOVLW      0
	XORWF      _arrosageClrCount+0, 0
L__arrosage65:
	BTFSS      STATUS+0, 2
	GOTO       L_arrosage0
;lcd.c,34 :: 		Lcd_Cmd(_LCD_CLEAR);
	MOVLW      1
	MOVWF      FARG_Lcd_Cmd_out_char+0
	CALL       _Lcd_Cmd+0
;lcd.c,35 :: 		}
L_arrosage0:
;lcd.c,36 :: 		Lcd_out(1,2,"Arrosage gazon");
	MOVLW      1
	MOVWF      FARG_Lcd_Out_row+0
	MOVLW      2
	MOVWF      FARG_Lcd_Out_column+0
	MOVLW      ?lstr1_lcd+0
	MOVWF      FARG_Lcd_Out_text+0
	CALL       _Lcd_Out+0
;lcd.c,37 :: 		portd.rd6=1;
	BSF        PORTD+0, 6
;lcd.c,38 :: 		arrosageClrCount=1;
	MOVLW      1
	MOVWF      _arrosageClrCount+0
	MOVLW      0
	MOVWF      _arrosageClrCount+1
;lcd.c,39 :: 		}
L_end_arrosage:
	RETURN
; end of _arrosage

_finArrosage:

;lcd.c,41 :: 		void finArrosage(){
;lcd.c,42 :: 		arrosageClrCount=0;
	CLRF       _arrosageClrCount+0
	CLRF       _arrosageClrCount+1
;lcd.c,44 :: 		if(finArrosageClrCount==0){
	MOVLW      0
	XORWF      _finArrosageClrCount+1, 0
	BTFSS      STATUS+0, 2
	GOTO       L__finArrosage67
	MOVLW      0
	XORWF      _finArrosageClrCount+0, 0
L__finArrosage67:
	BTFSS      STATUS+0, 2
	GOTO       L_finArrosage1
;lcd.c,45 :: 		Lcd_Cmd(_LCD_CLEAR);
	MOVLW      1
	MOVWF      FARG_Lcd_Cmd_out_char+0
	CALL       _Lcd_Cmd+0
;lcd.c,46 :: 		}
L_finArrosage1:
;lcd.c,47 :: 		Lcd_out(1,3,"Fin arrosage");
	MOVLW      1
	MOVWF      FARG_Lcd_Out_row+0
	MOVLW      3
	MOVWF      FARG_Lcd_Out_column+0
	MOVLW      ?lstr2_lcd+0
	MOVWF      FARG_Lcd_Out_text+0
	CALL       _Lcd_Out+0
;lcd.c,48 :: 		Lcd_out(2,6,"gazon");
	MOVLW      2
	MOVWF      FARG_Lcd_Out_row+0
	MOVLW      6
	MOVWF      FARG_Lcd_Out_column+0
	MOVLW      ?lstr3_lcd+0
	MOVWF      FARG_Lcd_Out_text+0
	CALL       _Lcd_Out+0
;lcd.c,49 :: 		portd.rd6=0;
	BCF        PORTD+0, 6
;lcd.c,50 :: 		finArrosageClrCount=1;
	MOVLW      1
	MOVWF      _finArrosageClrCount+0
	MOVLW      0
	MOVWF      _finArrosageClrCount+1
;lcd.c,51 :: 		}
L_end_finArrosage:
	RETURN
; end of _finArrosage

_panne:

;lcd.c,53 :: 		void panne(){
;lcd.c,54 :: 		Lcd_out(1,1,"Systeme en panne");
	MOVLW      1
	MOVWF      FARG_Lcd_Out_row+0
	MOVLW      1
	MOVWF      FARG_Lcd_Out_column+0
	MOVLW      ?lstr4_lcd+0
	MOVWF      FARG_Lcd_Out_text+0
	CALL       _Lcd_Out+0
;lcd.c,55 :: 		portd.rd6=0;
	BCF        PORTD+0, 6
;lcd.c,56 :: 		}
L_end_panne:
	RETURN
; end of _panne

_bipeur:

;lcd.c,58 :: 		void bipeur(){
;lcd.c,59 :: 		portd.rd7=1;
	BSF        PORTD+0, 7
;lcd.c,60 :: 		delay_ms(500);
	MOVLW      3
	MOVWF      R11+0
	MOVLW      138
	MOVWF      R12+0
	MOVLW      85
	MOVWF      R13+0
L_bipeur2:
	DECFSZ     R13+0, 1
	GOTO       L_bipeur2
	DECFSZ     R12+0, 1
	GOTO       L_bipeur2
	DECFSZ     R11+0, 1
	GOTO       L_bipeur2
	NOP
	NOP
;lcd.c,61 :: 		portd.rd7=0;
	BCF        PORTD+0, 7
;lcd.c,62 :: 		delay_ms(500);
	MOVLW      3
	MOVWF      R11+0
	MOVLW      138
	MOVWF      R12+0
	MOVLW      85
	MOVWF      R13+0
L_bipeur3:
	DECFSZ     R13+0, 1
	GOTO       L_bipeur3
	DECFSZ     R12+0, 1
	GOTO       L_bipeur3
	DECFSZ     R11+0, 1
	GOTO       L_bipeur3
	NOP
	NOP
;lcd.c,63 :: 		portd.rd6=0;
	BCF        PORTD+0, 6
;lcd.c,64 :: 		}
L_end_bipeur:
	RETURN
; end of _bipeur

_pluieFn:

;lcd.c,66 :: 		void pluieFn(){
;lcd.c,67 :: 		if(pluieClrCount==0){
	MOVLW      0
	XORWF      _pluieClrCount+1, 0
	BTFSS      STATUS+0, 2
	GOTO       L__pluieFn71
	MOVLW      0
	XORWF      _pluieClrCount+0, 0
L__pluieFn71:
	BTFSS      STATUS+0, 2
	GOTO       L_pluieFn4
;lcd.c,68 :: 		Lcd_Cmd(_LCD_CLEAR);
	MOVLW      1
	MOVWF      FARG_Lcd_Cmd_out_char+0
	CALL       _Lcd_Cmd+0
;lcd.c,69 :: 		}
L_pluieFn4:
;lcd.c,70 :: 		Lcd_out(1,5,"PLUIE");
	MOVLW      1
	MOVWF      FARG_Lcd_Out_row+0
	MOVLW      5
	MOVWF      FARG_Lcd_Out_column+0
	MOVLW      ?lstr5_lcd+0
	MOVWF      FARG_Lcd_Out_text+0
	CALL       _Lcd_Out+0
;lcd.c,71 :: 		portd.rd6=0;
	BCF        PORTD+0, 6
;lcd.c,72 :: 		pluieClrCount=1;
	MOVLW      1
	MOVWF      _pluieClrCount+0
	MOVLW      0
	MOVWF      _pluieClrCount+1
;lcd.c,73 :: 		}
L_end_pluieFn:
	RETURN
; end of _pluieFn

_consulter:

;lcd.c,75 :: 		void consulter(){
;lcd.c,76 :: 		nb_panne = EEPROM_Read(0x02);
	MOVLW      2
	MOVWF      FARG_EEPROM_Read_Address+0
	CALL       _EEPROM_Read+0
	MOVF       R0+0, 0
	MOVWF      _nb_panne+0
	CLRF       _nb_panne+1
;lcd.c,77 :: 		if(consulterClrCount==0){
	MOVLW      0
	XORWF      _consulterClrCount+1, 0
	BTFSS      STATUS+0, 2
	GOTO       L__consulter73
	MOVLW      0
	XORWF      _consulterClrCount+0, 0
L__consulter73:
	BTFSS      STATUS+0, 2
	GOTO       L_consulter5
;lcd.c,78 :: 		Lcd_Cmd(_LCD_CLEAR);
	MOVLW      1
	MOVWF      FARG_Lcd_Cmd_out_char+0
	CALL       _Lcd_Cmd+0
;lcd.c,79 :: 		}
L_consulter5:
;lcd.c,80 :: 		IntToStr(nb_panne, panneStr);
	MOVF       _nb_panne+0, 0
	MOVWF      FARG_IntToStr_input+0
	MOVF       _nb_panne+1, 0
	MOVWF      FARG_IntToStr_input+1
	MOVLW      _panneStr+0
	MOVWF      FARG_IntToStr_output+0
	CALL       _IntToStr+0
;lcd.c,81 :: 		Lcd_out(1,3,"nb_panne:");
	MOVLW      1
	MOVWF      FARG_Lcd_Out_row+0
	MOVLW      3
	MOVWF      FARG_Lcd_Out_column+0
	MOVLW      ?lstr6_lcd+0
	MOVWF      FARG_Lcd_Out_text+0
	CALL       _Lcd_Out+0
;lcd.c,82 :: 		Lcd_out(2,3,panneStr);
	MOVLW      2
	MOVWF      FARG_Lcd_Out_row+0
	MOVLW      3
	MOVWF      FARG_Lcd_Out_column+0
	MOVLW      _panneStr+0
	MOVWF      FARG_Lcd_Out_text+0
	CALL       _Lcd_Out+0
;lcd.c,83 :: 		consulterClrCount=1;
	MOVLW      1
	MOVWF      _consulterClrCount+0
	MOVLW      0
	MOVWF      _consulterClrCount+1
;lcd.c,84 :: 		portd.rd6=0;
	BCF        PORTD+0, 6
;lcd.c,85 :: 		}
L_end_consulter:
	RETURN
; end of _consulter

_readHumidity:

;lcd.c,87 :: 		void readHumidity()
;lcd.c,89 :: 		hum= adc_read(0);
	CLRF       FARG_ADC_Read_channel+0
	CALL       _ADC_Read+0
	MOVF       R0+0, 0
	MOVWF      _hum+0
	MOVF       R0+1, 0
	MOVWF      _hum+1
;lcd.c,90 :: 		if(hum>=23 && hum<=66){
	MOVLW      128
	XORWF      R0+1, 0
	MOVWF      R2+0
	MOVLW      128
	SUBWF      R2+0, 0
	BTFSS      STATUS+0, 2
	GOTO       L__readHumidity75
	MOVLW      23
	SUBWF      R0+0, 0
L__readHumidity75:
	BTFSS      STATUS+0, 0
	GOTO       L_readHumidity8
	MOVLW      128
	MOVWF      R0+0
	MOVLW      128
	XORWF      _hum+1, 0
	SUBWF      R0+0, 0
	BTFSS      STATUS+0, 2
	GOTO       L__readHumidity76
	MOVF       _hum+0, 0
	SUBLW      66
L__readHumidity76:
	BTFSS      STATUS+0, 0
	GOTO       L_readHumidity8
L__readHumidity57:
;lcd.c,91 :: 		hum=hum-1;
	MOVLW      1
	SUBWF      _hum+0, 1
	BTFSS      STATUS+0, 0
	DECF       _hum+1, 1
;lcd.c,92 :: 		}else if(hum>=67){
	GOTO       L_readHumidity9
L_readHumidity8:
	MOVLW      128
	XORWF      _hum+1, 0
	MOVWF      R0+0
	MOVLW      128
	SUBWF      R0+0, 0
	BTFSS      STATUS+0, 2
	GOTO       L__readHumidity77
	MOVLW      67
	SUBWF      _hum+0, 0
L__readHumidity77:
	BTFSS      STATUS+0, 0
	GOTO       L_readHumidity10
;lcd.c,93 :: 		hum=hum-2;
	MOVLW      2
	SUBWF      _hum+0, 1
	BTFSS      STATUS+0, 0
	DECF       _hum+1, 1
;lcd.c,94 :: 		}
L_readHumidity10:
L_readHumidity9:
;lcd.c,95 :: 		}
L_end_readHumidity:
	RETURN
; end of _readHumidity

_interrupt:
	MOVWF      R15+0
	SWAPF      STATUS+0, 0
	CLRF       STATUS+0
	MOVWF      ___saveSTATUS+0
	MOVF       PCLATH+0, 0
	MOVWF      ___savePCLATH+0
	CLRF       PCLATH+0

;lcd.c,97 :: 		void interrupt()
;lcd.c,99 :: 		if((INTCON.RBIF)&&(INTCON.RBIE)){
	BTFSS      INTCON+0, 0
	GOTO       L_interrupt13
	BTFSS      INTCON+0, 3
	GOTO       L_interrupt13
L__interrupt59:
;lcd.c,100 :: 		if(portb.RB4==1){
	BTFSS      PORTB+0, 4
	GOTO       L_interrupt14
;lcd.c,101 :: 		testArrosage=1;
	MOVLW      1
	MOVWF      _testArrosage+0
	MOVLW      0
	MOVWF      _testArrosage+1
;lcd.c,102 :: 		portd.rd6=1;
	BSF        PORTD+0, 6
;lcd.c,103 :: 		}
L_interrupt14:
;lcd.c,105 :: 		if(portb.rb4==0){
	BTFSC      PORTB+0, 4
	GOTO       L_interrupt15
;lcd.c,106 :: 		testArrosage=0;
	CLRF       _testArrosage+0
	CLRF       _testArrosage+1
;lcd.c,107 :: 		portd.rd6=0;
	BCF        PORTD+0, 6
;lcd.c,109 :: 		}
L_interrupt15:
;lcd.c,111 :: 		if(portb.RB5==1){
	BTFSS      PORTB+0, 5
	GOTO       L_interrupt16
;lcd.c,112 :: 		consulterTest=1;
	MOVLW      1
	MOVWF      _consulterTest+0
	MOVLW      0
	MOVWF      _consulterTest+1
;lcd.c,113 :: 		TMR0= 0;
	CLRF       TMR0+0
;lcd.c,114 :: 		timerConsulter=915; //1 minute
	MOVLW      147
	MOVWF      _timerConsulter+0
	MOVLW      3
	MOVWF      _timerConsulter+1
;lcd.c,115 :: 		}
L_interrupt16:
;lcd.c,117 :: 		if(portb.RB5==0){
	BTFSC      PORTB+0, 5
	GOTO       L_interrupt17
;lcd.c,118 :: 		consulterTest=0;
	CLRF       _consulterTest+0
	CLRF       _consulterTest+1
;lcd.c,119 :: 		}
L_interrupt17:
;lcd.c,121 :: 		intcon.RBIF=0;
	BCF        INTCON+0, 0
;lcd.c,123 :: 		}
L_interrupt13:
;lcd.c,125 :: 		if((INTCON.INTF)&&(INTCON.INTE))
	BTFSS      INTCON+0, 1
	GOTO       L_interrupt20
	BTFSS      INTCON+0, 4
	GOTO       L_interrupt20
L__interrupt58:
;lcd.c,127 :: 		if(portb.rb0==1){
	BTFSS      PORTB+0, 0
	GOTO       L_interrupt21
;lcd.c,128 :: 		portd.rd6=0;
	BCF        PORTD+0, 6
;lcd.c,129 :: 		}else{
	GOTO       L_interrupt22
L_interrupt21:
;lcd.c,130 :: 		intcon.INTF=0;
	BCF        INTCON+0, 1
;lcd.c,131 :: 		}
L_interrupt22:
;lcd.c,133 :: 		}
L_interrupt20:
;lcd.c,136 :: 		if(INTCON.T0IF){
	BTFSS      INTCON+0, 2
	GOTO       L_interrupt23
;lcd.c,137 :: 		TMR0= 0;
	CLRF       TMR0+0
;lcd.c,138 :: 		if(timerBippeur>=0){
	MOVLW      128
	XORWF      _timerBippeur+1, 0
	MOVWF      R0+0
	MOVLW      128
	SUBWF      R0+0, 0
	BTFSS      STATUS+0, 2
	GOTO       L__interrupt80
	MOVLW      0
	SUBWF      _timerBippeur+0, 0
L__interrupt80:
	BTFSS      STATUS+0, 0
	GOTO       L_interrupt24
;lcd.c,139 :: 		timerBippeur--;
	MOVLW      1
	SUBWF      _timerBippeur+0, 1
	BTFSS      STATUS+0, 0
	DECF       _timerBippeur+1, 1
;lcd.c,140 :: 		}
L_interrupt24:
;lcd.c,141 :: 		if(timerConsulter>=0){
	MOVLW      128
	XORWF      _timerConsulter+1, 0
	MOVWF      R0+0
	MOVLW      128
	SUBWF      R0+0, 0
	BTFSS      STATUS+0, 2
	GOTO       L__interrupt81
	MOVLW      0
	SUBWF      _timerConsulter+0, 0
L__interrupt81:
	BTFSS      STATUS+0, 0
	GOTO       L_interrupt25
;lcd.c,142 :: 		timerConsulter--;
	MOVLW      1
	SUBWF      _timerConsulter+0, 1
	BTFSS      STATUS+0, 0
	DECF       _timerConsulter+1, 1
;lcd.c,143 :: 		}
L_interrupt25:
;lcd.c,144 :: 		INTCON.T0IF=0;
	BCF        INTCON+0, 2
;lcd.c,145 :: 		}
L_interrupt23:
;lcd.c,146 :: 		}
L_end_interrupt:
L__interrupt79:
	MOVF       ___savePCLATH+0, 0
	MOVWF      PCLATH+0
	SWAPF      ___saveSTATUS+0, 0
	MOVWF      STATUS+0
	SWAPF      R15+0, 1
	SWAPF      R15+0, 0
	RETFIE
; end of _interrupt

_main:

;lcd.c,148 :: 		void main(){
;lcd.c,149 :: 		trisD=0;
	CLRF       TRISD+0
;lcd.c,150 :: 		portD=0;
	CLRF       PORTD+0
;lcd.c,151 :: 		TRISB.RB0=1;
	BSF        TRISB+0, 0
;lcd.c,152 :: 		TRISB.RB4=1;
	BSF        TRISB+0, 4
;lcd.c,153 :: 		TRISB.RB5=1;
	BSF        TRISB+0, 5
;lcd.c,156 :: 		INTCON.GIE=1; //registre global des interruptions  flagbit7
	BSF        INTCON+0, 7
;lcd.c,157 :: 		INTCON.RBIE=1;                    //registre du portb   flagbit3
	BSF        INTCON+0, 3
;lcd.c,158 :: 		INTCON.INTE=1;           //rb0            flagbit4
	BSF        INTCON+0, 4
;lcd.c,159 :: 		OPTION_REG.INTEDG=1;          //rb0 montant mode compteur  flagbit6
	BSF        OPTION_REG+0, 6
;lcd.c,161 :: 		TMR0= 0;
	CLRF       TMR0+0
;lcd.c,162 :: 		INTCON.T0IE=1;            //config interruption global       bit 5
	BSF        INTCON+0, 5
;lcd.c,163 :: 		OPTION_REG.T0CS=0;        //config interruption timer  bit 5
	BCF        OPTION_REG+0, 5
;lcd.c,164 :: 		OPTION_REG.T0SE=0;         //config interrup timer mode compteur   bit 5
	BCF        OPTION_REG+0, 4
;lcd.c,165 :: 		OPTION_REG.PSA=0;                  //prédivisuer
	BCF        OPTION_REG+0, 3
;lcd.c,166 :: 		OPTION_REG.PS2=1;
	BSF        OPTION_REG+0, 2
;lcd.c,167 :: 		OPTION_REG.PS1=1;
	BSF        OPTION_REG+0, 1
;lcd.c,168 :: 		OPTION_REG.PS0=1;
	BSF        OPTION_REG+0, 0
;lcd.c,170 :: 		EEPROM_Write(0x02,nb_panne);
	MOVLW      2
	MOVWF      FARG_EEPROM_Write_Address+0
	MOVF       _nb_panne+0, 0
	MOVWF      FARG_EEPROM_Write_data_+0
	CALL       _EEPROM_Write+0
;lcd.c,171 :: 		Lcd_Init();
	CALL       _Lcd_Init+0
;lcd.c,172 :: 		Lcd_Cmd(_LCD_CURSOR_OFF);
	MOVLW      12
	MOVWF      FARG_Lcd_Cmd_out_char+0
	CALL       _Lcd_Cmd+0
;lcd.c,173 :: 		Lcd_out(1,5,"Welcome");
	MOVLW      1
	MOVWF      FARG_Lcd_Out_row+0
	MOVLW      5
	MOVWF      FARG_Lcd_Out_column+0
	MOVLW      ?lstr7_lcd+0
	MOVWF      FARG_Lcd_Out_text+0
	CALL       _Lcd_Out+0
;lcd.c,174 :: 		delay_ms(900);
	MOVLW      5
	MOVWF      R11+0
	MOVLW      145
	MOVWF      R12+0
	MOVLW      207
	MOVWF      R13+0
L_main26:
	DECFSZ     R13+0, 1
	GOTO       L_main26
	DECFSZ     R12+0, 1
	GOTO       L_main26
	DECFSZ     R11+0, 1
	GOTO       L_main26
	NOP
	NOP
;lcd.c,175 :: 		Lcd_Cmd(_LCD_CLEAR);
	MOVLW      1
	MOVWF      FARG_Lcd_Cmd_out_char+0
	CALL       _Lcd_Cmd+0
;lcd.c,176 :: 		Lcd_out(1,3,"SMART GARDEN");
	MOVLW      1
	MOVWF      FARG_Lcd_Out_row+0
	MOVLW      3
	MOVWF      FARG_Lcd_Out_column+0
	MOVLW      ?lstr8_lcd+0
	MOVWF      FARG_Lcd_Out_text+0
	CALL       _Lcd_Out+0
;lcd.c,177 :: 		Lcd_out(2,3,"By 2A5");
	MOVLW      2
	MOVWF      FARG_Lcd_Out_row+0
	MOVLW      3
	MOVWF      FARG_Lcd_Out_column+0
	MOVLW      ?lstr9_lcd+0
	MOVWF      FARG_Lcd_Out_text+0
	CALL       _Lcd_Out+0
;lcd.c,178 :: 		delay_ms(1200);
	MOVLW      7
	MOVWF      R11+0
	MOVLW      23
	MOVWF      R12+0
	MOVLW      106
	MOVWF      R13+0
L_main27:
	DECFSZ     R13+0, 1
	GOTO       L_main27
	DECFSZ     R12+0, 1
	GOTO       L_main27
	DECFSZ     R11+0, 1
	GOTO       L_main27
	NOP
;lcd.c,179 :: 		Lcd_Cmd(_LCD_CLEAR);
	MOVLW      1
	MOVWF      FARG_Lcd_Cmd_out_char+0
	CALL       _Lcd_Cmd+0
;lcd.c,180 :: 		ADC_init();
	CALL       _ADC_Init+0
;lcd.c,182 :: 		do{
L_main28:
;lcd.c,183 :: 		readHumidity();
	CALL       _readHumidity+0
;lcd.c,185 :: 		if(finArrosageClrCount==0 && hum>28){
	MOVLW      0
	XORWF      _finArrosageClrCount+1, 0
	BTFSS      STATUS+0, 2
	GOTO       L__main83
	MOVLW      0
	XORWF      _finArrosageClrCount+0, 0
L__main83:
	BTFSS      STATUS+0, 2
	GOTO       L_main33
	MOVLW      128
	MOVWF      R0+0
	MOVLW      128
	XORWF      _hum+1, 0
	SUBWF      R0+0, 0
	BTFSS      STATUS+0, 2
	GOTO       L__main84
	MOVF       _hum+0, 0
	SUBLW      28
L__main84:
	BTFSC      STATUS+0, 0
	GOTO       L_main33
L__main63:
;lcd.c,186 :: 		arrosage();
	CALL       _arrosage+0
;lcd.c,187 :: 		}
L_main33:
;lcd.c,190 :: 		if(testArrosage==1){
	MOVLW      0
	XORWF      _testArrosage+1, 0
	BTFSS      STATUS+0, 2
	GOTO       L__main85
	MOVLW      1
	XORWF      _testArrosage+0, 0
L__main85:
	BTFSS      STATUS+0, 2
	GOTO       L_main34
;lcd.c,191 :: 		arrosage();
	CALL       _arrosage+0
;lcd.c,192 :: 		}else{
	GOTO       L_main35
L_main34:
;lcd.c,193 :: 		if(testFinArrosage == 1){
	MOVLW      0
	XORWF      _testFinArrosage+1, 0
	BTFSS      STATUS+0, 2
	GOTO       L__main86
	MOVLW      1
	XORWF      _testFinArrosage+0, 0
L__main86:
	BTFSS      STATUS+0, 2
	GOTO       L_main36
;lcd.c,194 :: 		finArrosage();
	CALL       _finArrosage+0
;lcd.c,195 :: 		}
L_main36:
;lcd.c,197 :: 		if(consulterTest == 1){
	MOVLW      0
	XORWF      _consulterTest+1, 0
	BTFSS      STATUS+0, 2
	GOTO       L__main87
	MOVLW      1
	XORWF      _consulterTest+0, 0
L__main87:
	BTFSS      STATUS+0, 2
	GOTO       L_main37
;lcd.c,198 :: 		while(timerConsulter>0){
L_main38:
	MOVLW      128
	MOVWF      R0+0
	MOVLW      128
	XORWF      _timerConsulter+1, 0
	SUBWF      R0+0, 0
	BTFSS      STATUS+0, 2
	GOTO       L__main88
	MOVF       _timerConsulter+0, 0
	SUBLW      0
L__main88:
	BTFSC      STATUS+0, 0
	GOTO       L_main39
;lcd.c,199 :: 		consulter();
	CALL       _consulter+0
;lcd.c,200 :: 		if(timerConsulter<=0){
	MOVLW      128
	MOVWF      R0+0
	MOVLW      128
	XORWF      _timerConsulter+1, 0
	SUBWF      R0+0, 0
	BTFSS      STATUS+0, 2
	GOTO       L__main89
	MOVF       _timerConsulter+0, 0
	SUBLW      0
L__main89:
	BTFSS      STATUS+0, 0
	GOTO       L_main40
;lcd.c,201 :: 		Lcd_Cmd(_LCD_CLEAR);
	MOVLW      1
	MOVWF      FARG_Lcd_Cmd_out_char+0
	CALL       _Lcd_Cmd+0
;lcd.c,202 :: 		}
L_main40:
;lcd.c,203 :: 		}
	GOTO       L_main38
L_main39:
;lcd.c,204 :: 		}else{
	GOTO       L_main41
L_main37:
;lcd.c,205 :: 		consulterClrCount=0;
	CLRF       _consulterClrCount+0
	CLRF       _consulterClrCount+1
;lcd.c,207 :: 		if(hum<=30 && hum>28){
	MOVLW      128
	MOVWF      R0+0
	MOVLW      128
	XORWF      _hum+1, 0
	SUBWF      R0+0, 0
	BTFSS      STATUS+0, 2
	GOTO       L__main90
	MOVF       _hum+0, 0
	SUBLW      30
L__main90:
	BTFSS      STATUS+0, 0
	GOTO       L_main44
	MOVLW      128
	MOVWF      R0+0
	MOVLW      128
	XORWF      _hum+1, 0
	SUBWF      R0+0, 0
	BTFSS      STATUS+0, 2
	GOTO       L__main91
	MOVF       _hum+0, 0
	SUBLW      28
L__main91:
	BTFSC      STATUS+0, 0
	GOTO       L_main44
L__main62:
;lcd.c,208 :: 		arrosage();
	CALL       _arrosage+0
;lcd.c,209 :: 		testFinArrosage=0;
	CLRF       _testFinArrosage+0
	CLRF       _testFinArrosage+1
;lcd.c,210 :: 		}else if(hum>=50){
	GOTO       L_main45
L_main44:
	MOVLW      128
	XORWF      _hum+1, 0
	MOVWF      R0+0
	MOVLW      128
	SUBWF      R0+0, 0
	BTFSS      STATUS+0, 2
	GOTO       L__main92
	MOVLW      50
	SUBWF      _hum+0, 0
L__main92:
	BTFSS      STATUS+0, 0
	GOTO       L_main46
;lcd.c,211 :: 		finArrosage();
	CALL       _finArrosage+0
;lcd.c,212 :: 		testFinArrosage=1;
	MOVLW      1
	MOVWF      _testFinArrosage+0
	MOVLW      0
	MOVWF      _testFinArrosage+1
;lcd.c,213 :: 		}
L_main46:
L_main45:
;lcd.c,215 :: 		if(hum<29){
	MOVLW      128
	XORWF      _hum+1, 0
	MOVWF      R0+0
	MOVLW      128
	SUBWF      R0+0, 0
	BTFSS      STATUS+0, 2
	GOTO       L__main93
	MOVLW      29
	SUBWF      _hum+0, 0
L__main93:
	BTFSC      STATUS+0, 0
	GOTO       L_main47
;lcd.c,216 :: 		panne();
	CALL       _panne+0
;lcd.c,217 :: 		if(startPanne==0){
	MOVLW      0
	XORWF      _startPanne+1, 0
	BTFSS      STATUS+0, 2
	GOTO       L__main94
	MOVLW      0
	XORWF      _startPanne+0, 0
L__main94:
	BTFSS      STATUS+0, 2
	GOTO       L_main48
;lcd.c,218 :: 		timerBippeur=4577; //5 minute
	MOVLW      225
	MOVWF      _timerBippeur+0
	MOVLW      17
	MOVWF      _timerBippeur+1
;lcd.c,219 :: 		nb_panne++;
	INCF       _nb_panne+0, 1
	BTFSC      STATUS+0, 2
	INCF       _nb_panne+1, 1
;lcd.c,220 :: 		EEPROM_Write(0x02,nb_panne);
	MOVLW      2
	MOVWF      FARG_EEPROM_Write_Address+0
	MOVF       _nb_panne+0, 0
	MOVWF      FARG_EEPROM_Write_data_+0
	CALL       _EEPROM_Write+0
;lcd.c,221 :: 		}
L_main48:
;lcd.c,222 :: 		startPanne=1;
	MOVLW      1
	MOVWF      _startPanne+0
	MOVLW      0
	MOVWF      _startPanne+1
;lcd.c,223 :: 		}else{
	GOTO       L_main49
L_main47:
;lcd.c,224 :: 		startPanne=0;
	CLRF       _startPanne+0
	CLRF       _startPanne+1
;lcd.c,225 :: 		}
L_main49:
;lcd.c,227 :: 		while(hum<29 && timerBippeur>0){
L_main50:
	MOVLW      128
	XORWF      _hum+1, 0
	MOVWF      R0+0
	MOVLW      128
	SUBWF      R0+0, 0
	BTFSS      STATUS+0, 2
	GOTO       L__main95
	MOVLW      29
	SUBWF      _hum+0, 0
L__main95:
	BTFSC      STATUS+0, 0
	GOTO       L_main51
	MOVLW      128
	MOVWF      R0+0
	MOVLW      128
	XORWF      _timerBippeur+1, 0
	SUBWF      R0+0, 0
	BTFSS      STATUS+0, 2
	GOTO       L__main96
	MOVF       _timerBippeur+0, 0
	SUBLW      0
L__main96:
	BTFSC      STATUS+0, 0
	GOTO       L_main51
L__main61:
;lcd.c,228 :: 		readHumidity();
	CALL       _readHumidity+0
;lcd.c,229 :: 		bipeur();
	CALL       _bipeur+0
;lcd.c,231 :: 		if(hum>=29 || timerBippeur<=0){
	MOVLW      128
	XORWF      _hum+1, 0
	MOVWF      R0+0
	MOVLW      128
	SUBWF      R0+0, 0
	BTFSS      STATUS+0, 2
	GOTO       L__main97
	MOVLW      29
	SUBWF      _hum+0, 0
L__main97:
	BTFSC      STATUS+0, 0
	GOTO       L__main60
	MOVLW      128
	MOVWF      R0+0
	MOVLW      128
	XORWF      _timerBippeur+1, 0
	SUBWF      R0+0, 0
	BTFSS      STATUS+0, 2
	GOTO       L__main98
	MOVF       _timerBippeur+0, 0
	SUBLW      0
L__main98:
	BTFSC      STATUS+0, 0
	GOTO       L__main60
	GOTO       L_main56
L__main60:
;lcd.c,232 :: 		Lcd_Cmd(_LCD_CLEAR);
	MOVLW      1
	MOVWF      FARG_Lcd_Cmd_out_char+0
	CALL       _Lcd_Cmd+0
;lcd.c,233 :: 		}
L_main56:
;lcd.c,234 :: 		}
	GOTO       L_main50
L_main51:
;lcd.c,236 :: 		}
L_main41:
;lcd.c,237 :: 		}
L_main35:
;lcd.c,239 :: 		}while(1);
	GOTO       L_main28
;lcd.c,241 :: 		}
L_end_main:
	GOTO       $+0
; end of _main
